
 Start  Stop   Length Name               Class

 00000H 02046H 02047H _TEXT              CODE
 02048H 0299DH 00956H _DATA              DATA
 0299EH 0449DH 01B00H _BSS               BSS

  Address         Publics by Name

 0000:1F64       F_LDIV@
 0000:1F73       F_LMOD@
 0000:1F6B       F_LUDIV@
 0000:1F7B       F_LUMOD@
 0000:2012       F_LXLSH@
 0000:1F64       LDIV@
 0000:1F73       LMOD@
 0000:1F6B       LUDIV@
 0000:1F7B       LUMOD@
 0000:2012       LXLSH@
 0000:1F61       N_LDIV@
 0000:1F70       N_LMOD@
 0000:1F68       N_LUDIV@
 0000:1F78       N_LUMOD@
 0000:200F       N_LXLSH@
 0000:2030       N_LXMUL@
 0000:0E48       _activarTraza
 0000:09DC       _aio_read
 0000:09F6       _aio_write
 0000:0E58       _analizarProcesos
 0204:005A       _argv
 0204:2044       _c2cPFR
 0204:2402       _car
 0000:08E6       _close
 0000:00EB       _colas
 0204:20E2       _comando
 0000:1DC4       _copiarStr
 0000:1DED       _copiarStrHasta
 0000:0AD9       _crearFichero
 0000:0AC5       _crearRecurso
 0000:0808       _createProcess
 0204:171E       _descFichero
 0204:095E       _descProceso
 0204:18C2       _descRecurso
 0000:0B0B       _destruirRecurso
 0204:0832       _dig
 0204:1D4C       _e2PFR
 0000:0B38       _eliminarCcbRecurso
 0000:0B1F       _encolarCcbRecurso
 0000:0030       _ePC2c
 0000:0757       _escribirBin
 0000:0693       _escribirCar
 0000:0796       _escribirCursor
 0000:06D6       _escribirDec
 0000:072C       _escribirHex
 0000:0701       _escribirInt
 0000:076B       _escribirLBin
 0000:06EA       _escribirLDec
 0000:0740       _escribirLHex
 0000:0715       _escribirLInt
 0000:06A4       _escribirLn
 0000:0782       _escribirPtr
 0000:06AC       _escribirStr
 0000:06BE       _escribirStrHasta
 0000:0AFA       _esperarDesinstalacion
 0000:07F6       _establecerLineas
 0000:0821       _exec
 0000:0890       _exit
 0000:0A9E       _fcntl
 0204:245E       _finBSS
 0204:095E       _finData
 0000:0D8C       _findFirst
 0000:0DB0       _findNext
 0000:095C       _fork
 0000:00DB       _formato
 0000:0C55       _getdisk
 0000:09B1       _getgid
 0000:096D       _getpid
 0000:097E       _getpindx
 0000:098F       _getppid
 0000:09A0       _getuid
 0000:00E3       _help
 0000:1BD5       _identificador
 0000:1E27       _iguales
 0000:1E60       _igualesHasta
 0000:1EA4       _igualesSalvoMayusculasHasta
 0204:085E       _inCmd
 0000:1F38       _incPtr
 0000:19CB       _inicScanner
 0000:0942       _ioctl
 0000:08BB       _kill
 0000:0A10       _leer
 0000:0A5C       _leerAsciiListo
 0000:07B7       _leerCursor
 0000:0A36       _leerListo
 0000:0E67       _ll_buscarBloque
 0000:0E9F       _ll_devolverBloque
 0000:0EE6       _ll_tamBloqueMax
 0000:0914       _lseek
 0000:048E       _main
 0000:0643       _mayuscula
 0000:1067       _mbox_receive
 0000:104A       _mbox_send
 0000:066B       _minuscula
 0204:0862       _nComandos
 0204:2408       _num
 0204:095C       _numCmds
 0000:1A16       _numDec
 0000:1AE9       _numHex
 0204:240A       _numLargo
 0000:19D7       _obtenCar
 0000:0C3B       _obtenInfoFAB
 0000:0C48       _obtenInfoINFO
 0000:0B8C       _obtenInfoMEM
 0000:0BE8       _obtenInfoPFR
 0000:0B51       _obtenInfoPS
 0000:0AB8       _obtenInfoSO1
 0000:1CFF       _obtenSimb
 0000:1D90       _obtenStr
 0000:1F23       _off
 0000:08CF       _open
 0204:0860       _outCmd
 0000:1EF6       _pointer
 0204:2404       _pos
 0000:184D       _printfGen
 0000:16A6       _printGenBin
 0000:112A       _printGenDec
 0000:14FF       _printGenHex
 0000:12CD       _printGenInt
 0000:1752       _printGenLBin
 0000:11F2       _printGenLDec
 0000:15BD       _printGenLHex
 0000:13CE       _printGenLInt
 0000:1084       _printGenLn
 0000:180F       _printGenPtr
 0000:1098       _printGenStr
 0000:10D2       _printGenStrHasta
 0000:0C66       _procesarEntrada
 0204:20A8       _ptrC2c
 0000:197A       _putBin
 0000:187A       _putCar
 0000:18D5       _putDec
 0000:1943       _putHex
 0000:190C       _putInt
 0000:1994       _putLBin
 0000:18EF       _putLDec
 0000:195D       _putLHex
 0000:1926       _putLInt
 0000:188D       _putLn
 0000:19B1       _putPtr
 0000:189F       _putStr
 0000:18B7       _putStrHasta
 0000:09C2       _read
 0000:0F18       _retardoActivo
 0000:1A09       _saltarBlancos
 0000:1F0E       _seg
 0000:1016       _sem_bajar
 0000:0FF9       _sem_inic
 0000:1030       _sem_subir
 0000:08AC       _setgid
 0000:089D       _setuid
 0204:2406       _simb
 0204:0864       _simbCmd
 0000:0000       _startBin
 0204:095E       _startBSS
 0000:0000       _startCode
 0204:0008       _startData
 0204:240E       _str
 0204:0084       _strCola
 0000:083A       _waitpid
 0000:08FA       _write
 0000:002F       __setargv__

  Address         Publics by Value

 0000:0000       _startCode
 0000:0000       _startBin
 0000:002F       __setargv__
 0000:0030       _ePC2c
 0000:00DB       _formato
 0000:00E3       _help
 0000:00EB       _colas
 0000:048E       _main
 0000:0643       _mayuscula
 0000:066B       _minuscula
 0000:0693       _escribirCar
 0000:06A4       _escribirLn
 0000:06AC       _escribirStr
 0000:06BE       _escribirStrHasta
 0000:06D6       _escribirDec
 0000:06EA       _escribirLDec
 0000:0701       _escribirInt
 0000:0715       _escribirLInt
 0000:072C       _escribirHex
 0000:0740       _escribirLHex
 0000:0757       _escribirBin
 0000:076B       _escribirLBin
 0000:0782       _escribirPtr
 0000:0796       _escribirCursor
 0000:07B7       _leerCursor
 0000:07F6       _establecerLineas
 0000:0808       _createProcess
 0000:0821       _exec
 0000:083A       _waitpid
 0000:0890       _exit
 0000:089D       _setuid
 0000:08AC       _setgid
 0000:08BB       _kill
 0000:08CF       _open
 0000:08E6       _close
 0000:08FA       _write
 0000:0914       _lseek
 0000:0942       _ioctl
 0000:095C       _fork
 0000:096D       _getpid
 0000:097E       _getpindx
 0000:098F       _getppid
 0000:09A0       _getuid
 0000:09B1       _getgid
 0000:09C2       _read
 0000:09DC       _aio_read
 0000:09F6       _aio_write
 0000:0A10       _leer
 0000:0A36       _leerListo
 0000:0A5C       _leerAsciiListo
 0000:0A9E       _fcntl
 0000:0AB8       _obtenInfoSO1
 0000:0AC5       _crearRecurso
 0000:0AD9       _crearFichero
 0000:0AFA       _esperarDesinstalacion
 0000:0B0B       _destruirRecurso
 0000:0B1F       _encolarCcbRecurso
 0000:0B38       _eliminarCcbRecurso
 0000:0B51       _obtenInfoPS
 0000:0B8C       _obtenInfoMEM
 0000:0BE8       _obtenInfoPFR
 0000:0C3B       _obtenInfoFAB
 0000:0C48       _obtenInfoINFO
 0000:0C55       _getdisk
 0000:0C66       _procesarEntrada
 0000:0D8C       _findFirst
 0000:0DB0       _findNext
 0000:0E48       _activarTraza
 0000:0E58       _analizarProcesos
 0000:0E67       _ll_buscarBloque
 0000:0E9F       _ll_devolverBloque
 0000:0EE6       _ll_tamBloqueMax
 0000:0F18       _retardoActivo
 0000:0FF9       _sem_inic
 0000:1016       _sem_bajar
 0000:1030       _sem_subir
 0000:104A       _mbox_send
 0000:1067       _mbox_receive
 0000:1084       _printGenLn
 0000:1098       _printGenStr
 0000:10D2       _printGenStrHasta
 0000:112A       _printGenDec
 0000:11F2       _printGenLDec
 0000:12CD       _printGenInt
 0000:13CE       _printGenLInt
 0000:14FF       _printGenHex
 0000:15BD       _printGenLHex
 0000:16A6       _printGenBin
 0000:1752       _printGenLBin
 0000:180F       _printGenPtr
 0000:184D       _printfGen
 0000:187A       _putCar
 0000:188D       _putLn
 0000:189F       _putStr
 0000:18B7       _putStrHasta
 0000:18D5       _putDec
 0000:18EF       _putLDec
 0000:190C       _putInt
 0000:1926       _putLInt
 0000:1943       _putHex
 0000:195D       _putLHex
 0000:197A       _putBin
 0000:1994       _putLBin
 0000:19B1       _putPtr
 0000:19CB       _inicScanner
 0000:19D7       _obtenCar
 0000:1A09       _saltarBlancos
 0000:1A16       _numDec
 0000:1AE9       _numHex
 0000:1BD5       _identificador
 0000:1CFF       _obtenSimb
 0000:1D90       _obtenStr
 0000:1DC4       _copiarStr
 0000:1DED       _copiarStrHasta
 0000:1E27       _iguales
 0000:1E60       _igualesHasta
 0000:1EA4       _igualesSalvoMayusculasHasta
 0000:1EF6       _pointer
 0000:1F0E       _seg
 0000:1F23       _off
 0000:1F38       _incPtr
 0000:1F61       N_LDIV@
 0000:1F64       LDIV@
 0000:1F64       F_LDIV@
 0000:1F68       N_LUDIV@
 0000:1F6B       F_LUDIV@
 0000:1F6B       LUDIV@
 0000:1F70       N_LMOD@
 0000:1F73       LMOD@
 0000:1F73       F_LMOD@
 0000:1F78       N_LUMOD@
 0000:1F7B       LUMOD@
 0000:1F7B       F_LUMOD@
 0000:200F       N_LXLSH@
 0000:2012       LXLSH@
 0000:2012       F_LXLSH@
 0000:2030       N_LXMUL@
 0204:0008       _startData
 0204:005A       _argv
 0204:0084       _strCola
 0204:0832       _dig
 0204:085E       _inCmd
 0204:0860       _outCmd
 0204:0862       _nComandos
 0204:0864       _simbCmd
 0204:095C       _numCmds
 0204:095E       _descProceso
 0204:095E       _startBSS
 0204:095E       _finData
 0204:171E       _descFichero
 0204:18C2       _descRecurso
 0204:1D4C       _e2PFR
 0204:2044       _c2cPFR
 0204:20A8       _ptrC2c
 0204:20E2       _comando
 0204:2402       _car
 0204:2404       _pos
 0204:2406       _simb
 0204:2408       _num
 0204:240A       _numLargo
 0204:240E       _str
 0204:245E       _finBSS

Line numbers for ..\c2cprg.obj(..\c2cprg.c) segment _TEXT

    71 0000:0030    74 0000:0034    75 0000:003D    76 0000:0047
    77 0000:0051    79 0000:0057    80 0000:0062    81 0000:0069
    82 0000:0074    83 0000:007B    84 0000:0086    86 0000:008D
    87 0000:0094    88 0000:009A    90 0000:00A1    92 0000:00AC
    93 0000:00B2    88 0000:00C7    95 0000:00D2    96 0000:00D9
    98 0000:00DB   102 0000:00E2   104 0000:00E3   127 0000:00EA
   129 0000:00EB   139 0000:00EF   142 0000:00FE   144 0000:0105
   145 0000:010C   146 0000:011A   147 0000:0121   148 0000:012F
   149 0000:0136   150 0000:0144   151 0000:014B   152 0000:0159
   153 0000:0160   154 0000:016E   155 0000:0175   156 0000:0183
   157 0000:018A   158 0000:0198   159 0000:019F   160 0000:01AD
   161 0000:01B4   162 0000:01C2   163 0000:01C9   165 0000:01D7
   166 0000:01DE   167 0000:01E5   168 0000:01EC   170 0000:01FA
   171 0000:0213   172 0000:021A   167 0000:0230   175 0000:0239
   176 0000:0240   177 0000:0247   178 0000:024E   180 0000:025B
   181 0000:0262   182 0000:026D   183 0000:0274   184 0000:027B
   177 0000:0290   186 0000:0299   190 0000:029F   191 0000:02A6
   192 0000:02BC   193 0000:02C3   194 0000:02D3   195 0000:02E4
   196 0000:02F5   197 0000:02FC   198 0000:030A   199 0000:0311
   200 0000:031C   201 0000:0323   202 0000:032A   203 0000:0338
   204 0000:033F   205 0000:034A   206 0000:0351   207 0000:0358
   208 0000:0366   209 0000:036D   210 0000:0378   211 0000:037F
   212 0000:0386   213 0000:0394   214 0000:039B   215 0000:03B3
   216 0000:03BA   217 0000:03C1   219 0000:03C8   220 0000:03D3
   217 0000:03D9   222 0000:03E4   223 0000:03EB   225 0000:03F2
   223 0000:03F9   227 0000:0404   228 0000:040B   230 0000:0412
   231 0000:0433   228 0000:0439   233 0000:0444   234 0000:044B
   236 0000:0452   237 0000:0474   234 0000:047A   239 0000:0485
   241 0000:048C   243 0000:048E   246 0000:0491   252 0000:04AB
   253 0000:04B4   254 0000:04DE   255 0000:04E4   256 0000:050E
   257 0000:0514   258 0000:053E   261 0000:054B   262 0000:055C
   263 0000:055F   264 0000:0562   266 0000:0569   267 0000:056F
   268 0000:0576   269 0000:0579   270 0000:0580   271 0000:058A
   273 0000:0590   275 0000:0597   276 0000:05A1   277 0000:05AB
   278 0000:05B5   279 0000:05BF   280 0000:05C9   281 0000:05D3
   282 0000:05DD   283 0000:05E7   284 0000:05F1   285 0000:05FB
   286 0000:0605   287 0000:0611   290 0000:0613   291 0000:0619
   292 0000:0620   293 0000:0623   295 0000:062A   296 0000:062C
   297 0000:0632   299 0000:063E   300 0000:0641
Program entry point at 0000:0000

